Certificate:
    Data:
        Version: 3 (0x2)
        Serial Number:
            2d:ef:93:32:f8:1a:9e:59:2e:09:fe:28:f6:e5:a9:21:97:91:50:85
        Signature Algorithm: sha256WithRSAEncryption
        Issuer: CN = pg
        Validity
            Not Before: Aug  2 16:12:57 2022 GMT
            Not After : Aug  2 16:12:57 2023 GMT
        Subject: CN = pg
        Subject Public Key Info:
            Public Key Algorithm: rsaEncryption
                RSA Public-Key: (2048 bit)
                Modulus:
                    00:d4:64:8b:62:64:78:80:e8:cb:e0:53:81:9e:ca:
                    e7:1c:73:cb:25:2b:73:ad:ec:f5:e7:fe:af:bd:fe:
                    42:2b:aa:74:35:12:e0:9b:f0:f2:b1:91:b1:17:1a:
                    be:2b:4b:ec:20:c7:2a:89:85:e7:33:7a:af:2f:8b:
                    3d:f7:bf:c2:e1:a4:4d:41:af:f6:b6:15:93:38:65:
                    11:10:5c:e9:99:5d:59:a2:4a:27:74:0e:b9:10:30:
                    e7:dc:15:87:d7:d6:3e:4e:9f:8d:5e:e0:e4:2e:8a:
                    37:50:da:ff:3e:9f:24:1f:f3:c9:4a:60:2f:81:c8:
                    e5:c8:62:4c:7a:60:5c:53:4b:da:8b:81:2a:06:d7:
                    74:e5:36:83:d5:0d:65:88:b1:90:52:27:c3:5d:d5:
                    2a:79:61:b8:55:5c:34:0c:4d:49:8c:e3:d7:c3:43:
                    e3:4a:ae:92:15:c2:be:e1:54:5b:e8:bd:41:5c:8c:
                    ae:c9:93:34:a3:ba:6a:0f:12:5c:88:82:4c:1d:29:
                    a5:1d:70:22:be:b1:44:61:99:da:6a:76:ac:67:fa:
                    2e:4e:ee:03:2c:7a:09:3c:37:17:fc:d1:b3:30:49:
                    c6:18:65:4e:07:2b:7a:b0:69:e1:76:2b:0e:22:a7:
                    70:2f:af:98:dc:52:f5:94:65:3c:0b:75:53:4e:c5:
                    8d:fd
                Exponent: 65537 (0x10001)
        X509v3 extensions:
            X509v3 Subject Key Identifier: 
                52:78:60:F7:C8:91:6D:04:A9:3F:8D:C0:F1:4C:C7:B9:16:5D:A5:3C
            X509v3 Authority Key Identifier: 
                keyid:52:78:60:F7:C8:91:6D:04:A9:3F:8D:C0:F1:4C:C7:B9:16:5D:A5:3C

            X509v3 Basic Constraints: critical
                CA:TRUE
    Signature Algorithm: sha256WithRSAEncryption
         ad:2c:2d:38:52:c3:d8:a1:2d:15:5d:c2:e3:2c:c4:5c:e4:77:
         dc:17:e4:15:c8:f4:99:40:b8:0d:93:13:9c:38:e7:16:e0:7f:
         71:49:de:58:27:b9:33:5c:44:30:fd:06:8c:12:bb:04:2e:38:
         fb:4a:54:fd:ef:b9:5e:6a:db:22:08:a4:01:74:f2:ec:c4:b6:
         55:50:79:df:bd:14:60:69:3e:9b:ce:2d:8f:d1:4b:98:65:09:
         f9:ab:58:22:3c:e4:8f:05:71:b8:91:60:e3:d8:fa:37:3f:90:
         49:a5:76:a6:0b:96:9f:3f:7c:db:ac:8d:ba:2e:f7:07:81:dd:
         75:46:ac:5e:07:a6:7a:7a:e3:b2:c2:67:ac:1d:6a:c2:17:76:
         31:8a:12:bf:2c:fb:aa:b5:15:1c:a0:0f:94:d6:cd:8c:0c:00:
         df:9c:1b:6c:00:70:eb:52:41:f2:6f:2c:d8:f2:e8:7e:39:7e:
         22:66:bf:2b:6d:9a:81:21:6b:90:e0:ae:79:6a:2c:5b:61:2c:
         b6:af:34:fe:00:43:86:2a:77:49:c4:5a:ca:14:ba:2b:11:e3:
         05:b1:e2:11:56:49:13:55:b0:02:6e:da:f3:04:e8:a2:40:b6:
         dd:84:1f:89:b7:b5:e0:47:c1:2a:74:25:a3:20:8b:91:83:ed:
         1b:a0:37:c6
-----BEGIN CERTIFICATE-----
MIIC+zCCAeOgAwIBAgIULe+TMvganlkuCf4o9uWpIZeRUIUwDQYJKoZIhvcNAQEL
BQAwDTELMAkGA1UEAwwCcGcwHhcNMjIwODAyMTYxMjU3WhcNMjMwODAyMTYxMjU3
WjANMQswCQYDVQQDDAJwZzCCASIwDQYJKoZIhvcNAQEBBQADggEPADCCAQoCggEB
ANRki2JkeIDoy+BTgZ7K5xxzyyUrc63s9ef+r73+QiuqdDUS4Jvw8rGRsRcavitL
7CDHKomF5zN6ry+LPfe/wuGkTUGv9rYVkzhlERBc6ZldWaJKJ3QOuRAw59wVh9fW
Pk6fjV7g5C6KN1Da/z6fJB/zyUpgL4HI5chiTHpgXFNL2ouBKgbXdOU2g9UNZYix
kFInw13VKnlhuFVcNAxNSYzj18ND40qukhXCvuFUW+i9QVyMrsmTNKO6ag8SXIiC
TB0ppR1wIr6xRGGZ2mp2rGf6Lk7uAyx6CTw3F/zRszBJxhhlTgcrerBp4XYrDiKn
cC+vmNxS9ZRlPAt1U07Fjf0CAwEAAaNTMFEwHQYDVR0OBBYEFFJ4YPfIkW0EqT+N
wPFMx7kWXaU8MB8GA1UdIwQYMBaAFFJ4YPfIkW0EqT+NwPFMx7kWXaU8MA8GA1Ud
EwEB/wQFMAMBAf8wDQYJKoZIhvcNAQELBQADggEBAK0sLThSw9ihLRVdwuMsxFzk
d9wX5BXI9JlAuA2TE5w45xbgf3FJ3lgnuTNcRDD9BowSuwQuOPtKVP3vuV5q2yII
pAF08uzEtlVQed+9FGBpPpvOLY/RS5hlCfmrWCI85I8FcbiRYOPY+jc/kEmldqYL
lp8/fNusjbou9weB3XVGrF4Hpnp647LCZ6wdasIXdjGKEr8s+6q1FRygD5TWzYwM
AN+cG2wAcOtSQfJvLNjy6H45fiJmvyttmoEha5DgrnlqLFthLLavNP4AQ4Yqd0nE
WsoUuisR4wWx4hFWSRNVsAJu2vME6KJAtt2EH4m3teBHwSp0JaMgi5GD7RugN8Y=
-----END CERTIFICATE-----
